target datalayout = "e-m:e-p270:32:32-p271:32:32-p272:64:64-i64:64-i128:128-f80:128-n8:16:32:64-S128"
target triple = "x86_64-pc-linux-gnu"

%struct.fill_chain = type { ptr, ptr, ptr }

@fill_cfg = internal global ptr null, align 8

; Function Attrs: nounwind uwtable
define dso_local void @add_fill_function(ptr noundef %0, ptr noundef %1) #0 {
  %3 = alloca ptr, align 8
  %4 = alloca ptr, align 8
  %5 = alloca ptr, align 8
  %6 = alloca ptr, align 8
  store ptr %0, ptr %3, align 8, !tbaa !11
  store ptr %1, ptr %4, align 8, !tbaa !11
  call void @llvm.lifetime.start.p0(i64 8, ptr %5) #11
  %7 = call ptr @xmalloc(i64 noundef 24)
  store ptr %7, ptr %5, align 8, !tbaa !115
  call void @llvm.lifetime.start.p0(i64 8, ptr %6) #11
  store ptr @fill_cfg, ptr %6, align 8, !tbaa !117
  %8 = load ptr, ptr %3, align 8, !tbaa !11
  %9 = load ptr, ptr %5, align 8, !tbaa !115
  %10 = getelementptr inbounds nuw %struct.fill_chain, ptr %9, i32 0, i32 0
  store ptr %8, ptr %10, align 8, !tbaa !119
  %11 = load ptr, ptr %4, align 8, !tbaa !11
  %12 = load ptr, ptr %5, align 8, !tbaa !115
  %13 = getelementptr inbounds nuw %struct.fill_chain, ptr %12, i32 0, i32 1
  store ptr %11, ptr %13, align 8, !tbaa !121
  %14 = load ptr, ptr %5, align 8, !tbaa !115
  %15 = getelementptr inbounds nuw %struct.fill_chain, ptr %14, i32 0, i32 2
  store ptr null, ptr %15, align 8, !tbaa !122
  br label %16

16:                                               ; preds = %20, %2
  %17 = load ptr, ptr %6, align 8, !tbaa !117
  %18 = load ptr, ptr %17, align 8, !tbaa !115
  %19 = icmp ne ptr %18, null
  br i1 %19, label %20, label %24

20:                                               ; preds = %16
  %21 = load ptr, ptr %6, align 8, !tbaa !117
  %22 = load ptr, ptr %21, align 8, !tbaa !115
  %23 = getelementptr inbounds nuw %struct.fill_chain, ptr %22, i32 0, i32 2
  store ptr %23, ptr %6, align 8, !tbaa !117
  br label %16, !llvm.loop !123

24:                                               ; preds = %16
  %25 = load ptr, ptr %5, align 8, !tbaa !115
  %26 = load ptr, ptr %6, align 8, !tbaa !117
  store ptr %25, ptr %26, align 8, !tbaa !115
  call void @llvm.lifetime.end.p0(i64 8, ptr %6) #11
  call void @llvm.lifetime.end.p0(i64 8, ptr %5) #11
  ret void
}