; Function Attrs: nounwind uwtable
define dso_local void @add_fill_function(ptr noundef %0, ptr noundef %1) local_unnamed_addr #3 {
  %3 = tail call ptr @xmalloc(i64 noundef 24) #22
  store ptr %0, ptr %3, align 8, !tbaa !109
  %4 = getelementptr inbounds nuw i8, ptr %3, i64 8
  store ptr %1, ptr %4, align 8, !tbaa !112
  %5 = getelementptr inbounds nuw i8, ptr %3, i64 16
  store ptr null, ptr %5, align 8, !tbaa !113
  br label %6

6:                                                ; preds = %6, %2
  %.0 = phi ptr [ @fill_cfg, %2 ], [ %8, %6 ]
  %7 = load ptr, ptr %.0, align 8, !tbaa !114
  %.not = icmp eq ptr %7, null
  %8 = getelementptr inbounds nuw i8, ptr %7, i64 16
  br i1 %.not, label %9, label %6, !llvm.loop !115

9:                                                ; preds = %6
  store ptr %3, ptr %.0, align 8, !tbaa !114
  ret void
}